; Function Attrs: nounwind uwtable
define hidden ptr @lexbor_dobject_alloc(ptr nocapture noundef %0) local_unnamed_addr #0 {
  %2 = getelementptr inbounds i8, ptr %0, i64 8
  %3 = load ptr, ptr %2, align 8
  %4 = getelementptr i8, ptr %3, i64 16
  %.val = load i64, ptr %4, align 8
  %.not = icmp eq i64 %.val, 0
  br i1 %.not, label %10, label %5

5:                                                ; preds = %1
  %6 = getelementptr inbounds i8, ptr %0, i64 16
  %7 = load i64, ptr %6, align 8
  %8 = add i64 %7, 1
  store i64 %8, ptr %6, align 8
  %9 = tail call ptr @lexbor_array_pop(ptr noundef nonnull %3) #6
  br label %20

10:                                               ; preds = %1
  %11 = load ptr, ptr %0, align 8
  %12 = getelementptr inbounds i8, ptr %0, i64 24
  %13 = load i64, ptr %12, align 8
  %14 = tail call ptr @lexbor_mem_alloc(ptr noundef %11, i64 noundef %13) #6
  %15 = icmp eq ptr %14, null
  br i1 %15, label %20, label %16

16:                                               ; preds = %10
  %17 = getelementptr inbounds i8, ptr %0, i64 16
  %18 = load i64, ptr %17, align 8
  %19 = add i64 %18, 1
  store i64 %19, ptr %17, align 8
  br label %20

20:                                               ; preds = %10, %16, %5
  %.0 = phi ptr [ %9, %5 ], [ %14, %16 ], [ null, %10 ]
  ret ptr %.0
}